target datalayout = "e-m:e-p270:32:32-p271:32:32-p272:64:64-i64:64-i128:128-f80:128-n8:16:32:64-S128"
target triple = "x86_64-unknown-linux-gnu"

%"struct.icu_75::RegularExpression" = type <{ i32, [4 x i8], ptr, ptr, ptr, i32, [4 x i8], ptr, ptr, i32, i8, [3 x i8] }>

; Function Attrs: mustprogress nounwind uwtable
define linkonce_odr noundef i32 @_ZN6icu_7515umtx_atomic_decEPSt6atomicIiE(ptr noundef %var) #0 comdat {
entry:
  %this.addr.i = alloca ptr, align 8
  %__i.addr.i = alloca i32, align 4
  %__m.addr.i = alloca i32, align 4
  %.atomictmp.i = alloca i32, align 4
  %atomic-temp.i = alloca i32, align 4
  %var.addr = alloca ptr, align 8
  store ptr %var, ptr %var.addr, align 8
  %0 = load ptr, ptr %var.addr, align 8
  store ptr %0, ptr %this.addr.i, align 8
  store i32 1, ptr %__i.addr.i, align 4
  store i32 5, ptr %__m.addr.i, align 4
  %this1.i = load ptr, ptr %this.addr.i, align 8
  %1 = load i32, ptr %__m.addr.i, align 4
  %2 = load i32, ptr %__i.addr.i, align 4
  store i32 %2, ptr %.atomictmp.i, align 4
  switch i32 %1, label %monotonic.i [
    i32 1, label %acquire.i
    i32 2, label %acquire.i
    i32 3, label %release.i
    i32 4, label %acqrel.i
    i32 5, label %seqcst.i
  ]

monotonic.i:                                      ; preds = %entry
  %3 = load i32, ptr %.atomictmp.i, align 4
  %4 = atomicrmw sub ptr %this1.i, i32 %3 monotonic, align 4
  store i32 %4, ptr %atomic-temp.i, align 4
  br label %_ZNSt13__atomic_baseIiE9fetch_subEiSt12memory_order.exit

acquire.i:                                        ; preds = %entry, %entry
  %5 = load i32, ptr %.atomictmp.i, align 4
  %6 = atomicrmw sub ptr %this1.i, i32 %5 acquire, align 4
  store i32 %6, ptr %atomic-temp.i, align 4
  br label %_ZNSt13__atomic_baseIiE9fetch_subEiSt12memory_order.exit

release.i:                                        ; preds = %entry
  %7 = load i32, ptr %.atomictmp.i, align 4
  %8 = atomicrmw sub ptr %this1.i, i32 %7 release, align 4
  store i32 %8, ptr %atomic-temp.i, align 4
  br label %_ZNSt13__atomic_baseIiE9fetch_subEiSt12memory_order.exit

acqrel.i:                                         ; preds = %entry
  %9 = load i32, ptr %.atomictmp.i, align 4
  %10 = atomicrmw sub ptr %this1.i, i32 %9 acq_rel, align 4
  store i32 %10, ptr %atomic-temp.i, align 4
  br label %_ZNSt13__atomic_baseIiE9fetch_subEiSt12memory_order.exit

seqcst.i:                                         ; preds = %entry
  %11 = load i32, ptr %.atomictmp.i, align 4
  %12 = atomicrmw sub ptr %this1.i, i32 %11 seq_cst, align 4
  store i32 %12, ptr %atomic-temp.i, align 4
  br label %_ZNSt13__atomic_baseIiE9fetch_subEiSt12memory_order.exit

_ZNSt13__atomic_baseIiE9fetch_subEiSt12memory_order.exit: ; preds = %seqcst.i, %acqrel.i, %release.i, %acquire.i, %monotonic.i
  %13 = load i32, ptr %atomic-temp.i, align 4
  %sub = sub nsw i32 %13, 1
  ret i32 %sub
}

; Function Attrs: mustprogress nounwind uwtable
define void @_ZN6icu_7517RegularExpressionD2Ev(ptr noundef nonnull align 8 dereferenceable(61) %this) unnamed_addr #0 align 2 personality ptr @__gxx_personality_v0 {
entry:
  %this.addr = alloca ptr, align 8
  store ptr %this, ptr %this.addr, align 8
  %this1 = load ptr, ptr %this.addr, align 8
  %fMatcher = getelementptr inbounds %"struct.icu_75::RegularExpression", ptr %this1, i32 0, i32 7
  %0 = load ptr, ptr %fMatcher, align 8
  %isnull = icmp eq ptr %0, null
  br i1 %isnull, label %delete.end, label %delete.notnull

delete.notnull:                                   ; preds = %entry
  call void @_ZN6icu_7512RegexMatcherD1Ev(ptr noundef nonnull align 8 dereferenceable(336) %0) #7
  call void @_ZN6icu_757UMemorydlEPv(ptr noundef %0) #7
  br label %delete.end

delete.end:                                       ; preds = %delete.notnull, %entry
  %fMatcher2 = getelementptr inbounds %"struct.icu_75::RegularExpression", ptr %this1, i32 0, i32 7
  store ptr null, ptr %fMatcher2, align 8
  %fPatRefCount = getelementptr inbounds %"struct.icu_75::RegularExpression", ptr %this1, i32 0, i32 3
  %1 = load ptr, ptr %fPatRefCount, align 8
  %cmp = icmp ne ptr %1, null
  br i1 %cmp, label %land.lhs.true, label %if.end

land.lhs.true:                                    ; preds = %delete.end
  %fPatRefCount3 = getelementptr inbounds %"struct.icu_75::RegularExpression", ptr %this1, i32 0, i32 3
  %2 = load ptr, ptr %fPatRefCount3, align 8
  %call = invoke noundef i32 @_ZN6icu_7515umtx_atomic_decEPSt6atomicIiE(ptr noundef %2)
          to label %invoke.cont unwind label %terminate.lpad

invoke.cont:                                      ; preds = %land.lhs.true
  %cmp4 = icmp eq i32 %call, 0
  br i1 %cmp4, label %if.then, label %if.end

if.then:                                          ; preds = %invoke.cont
  %fPat = getelementptr inbounds %"struct.icu_75::RegularExpression", ptr %this1, i32 0, i32 2
  %3 = load ptr, ptr %fPat, align 8
  %isnull5 = icmp eq ptr %3, null
  br i1 %isnull5, label %delete.end7, label %delete.notnull6

delete.notnull6:                                  ; preds = %if.then
  call void @_ZN6icu_7512RegexPatternD1Ev(ptr noundef nonnull align 8 dereferenceable(200) %3) #7
  call void @_ZN6icu_757UMemorydlEPv(ptr noundef %3) #7
  br label %delete.end7

delete.end7:                                      ; preds = %delete.notnull6, %if.then
  %fPatString = getelementptr inbounds %"struct.icu_75::RegularExpression", ptr %this1, i32 0, i32 4
  %4 = load ptr, ptr %fPatString, align 8
  invoke void @uprv_free_75(ptr noundef %4)
          to label %invoke.cont8 unwind label %terminate.lpad

invoke.cont8:                                     ; preds = %delete.end7
  %fPatRefCount9 = getelementptr inbounds %"struct.icu_75::RegularExpression", ptr %this1, i32 0, i32 3
  %5 = load ptr, ptr %fPatRefCount9, align 8
  invoke void @uprv_free_75(ptr noundef %5)
          to label %invoke.cont10 unwind label %terminate.lpad

invoke.cont10:                                    ; preds = %invoke.cont8
  br label %if.end

if.end:                                           ; preds = %invoke.cont10, %invoke.cont, %delete.end
  %fOwnsText = getelementptr inbounds %"struct.icu_75::RegularExpression", ptr %this1, i32 0, i32 10
  %6 = load i8, ptr %fOwnsText, align 4
  %tobool = icmp ne i8 %6, 0
  br i1 %tobool, label %land.lhs.true11, label %if.end16

land.lhs.true11:                                  ; preds = %if.end
  %fText = getelementptr inbounds %"struct.icu_75::RegularExpression", ptr %this1, i32 0, i32 8
  %7 = load ptr, ptr %fText, align 8
  %cmp12 = icmp ne ptr %7, null
  br i1 %cmp12, label %if.then13, label %if.end16

if.then13:                                        ; preds = %land.lhs.true11
  %fText14 = getelementptr inbounds %"struct.icu_75::RegularExpression", ptr %this1, i32 0, i32 8
  %8 = load ptr, ptr %fText14, align 8
  invoke void @uprv_free_75(ptr noundef %8)
          to label %invoke.cont15 unwind label %terminate.lpad

invoke.cont15:                                    ; preds = %if.then13
  br label %if.end16

if.end16:                                         ; preds = %invoke.cont15, %land.lhs.true11, %if.end
  %fMagic = getelementptr inbounds %"struct.icu_75::RegularExpression", ptr %this1, i32 0, i32 0
  store i32 0, ptr %fMagic, align 8
  ret void

terminate.lpad:                                   ; preds = %if.then13, %invoke.cont8, %delete.end7, %land.lhs.true
  %9 = landingpad { ptr, i32 }
          catch ptr null
  %10 = extractvalue { ptr, i32 } %9, 0
  call void @__clang_call_terminate(ptr %10) #8
  unreachable
}