; Function Attrs: mustprogress nounwind uwtable
define void @_ZN6icu_7517RegularExpressionD2Ev(ptr nocapture noundef nonnull align 8 dereferenceable(61) %this) unnamed_addr #1 align 2 personality ptr @__gxx_personality_v0 {
entry:
  %fMatcher = getelementptr inbounds i8, ptr %this, i64 40
  %0 = load ptr, ptr %fMatcher, align 8
  %isnull = icmp eq ptr %0, null
  br i1 %isnull, label %delete.end, label %delete.notnull

delete.notnull:                                   ; preds = %entry
  tail call void @_ZN6icu_7512RegexMatcherD1Ev(ptr noundef nonnull align 8 dereferenceable(336) %0) #10
  tail call void @_ZN6icu_757UMemorydlEPv(ptr noundef nonnull %0) #10
  br label %delete.end

delete.end:                                       ; preds = %delete.notnull, %entry
  store ptr null, ptr %fMatcher, align 8
  %fPatRefCount = getelementptr inbounds i8, ptr %this, i64 16
  %1 = load ptr, ptr %fPatRefCount, align 8
  %cmp.not = icmp eq ptr %1, null
  br i1 %cmp.not, label %if.end, label %land.lhs.true

land.lhs.true:                                    ; preds = %delete.end
  %2 = atomicrmw sub ptr %1, i32 1 seq_cst, align 4
  %cmp4 = icmp eq i32 %2, 1
  br i1 %cmp4, label %if.then, label %if.end

if.then:                                          ; preds = %land.lhs.true
  %fPat = getelementptr inbounds i8, ptr %this, i64 8
  %3 = load ptr, ptr %fPat, align 8
  %isnull5 = icmp eq ptr %3, null
  br i1 %isnull5, label %delete.end7, label %delete.notnull6

delete.notnull6:                                  ; preds = %if.then
  tail call void @_ZN6icu_7512RegexPatternD1Ev(ptr noundef nonnull align 8 dereferenceable(200) %3) #10
  tail call void @_ZN6icu_757UMemorydlEPv(ptr noundef nonnull %3) #10
  br label %delete.end7

delete.end7:                                      ; preds = %delete.notnull6, %if.then
  %fPatString = getelementptr inbounds i8, ptr %this, i64 24
  %4 = load ptr, ptr %fPatString, align 8
  invoke void @uprv_free_75(ptr noundef %4)
          to label %invoke.cont8 unwind label %terminate.lpad

invoke.cont8:                                     ; preds = %delete.end7
  %5 = load ptr, ptr %fPatRefCount, align 8
  invoke void @uprv_free_75(ptr noundef %5)
          to label %if.end unwind label %terminate.lpad

if.end:                                           ; preds = %invoke.cont8, %land.lhs.true, %delete.end
  %fOwnsText = getelementptr inbounds i8, ptr %this, i64 60
  %6 = load i8, ptr %fOwnsText, align 4
  %tobool.not = icmp eq i8 %6, 0
  br i1 %tobool.not, label %if.end16, label %land.lhs.true11

land.lhs.true11:                                  ; preds = %if.end
  %fText = getelementptr inbounds i8, ptr %this, i64 48
  %7 = load ptr, ptr %fText, align 8
  %cmp12.not = icmp eq ptr %7, null
  br i1 %cmp12.not, label %if.end16, label %if.then13

if.then13:                                        ; preds = %land.lhs.true11
  invoke void @uprv_free_75(ptr noundef nonnull %7)
          to label %if.end16 unwind label %terminate.lpad

if.end16:                                         ; preds = %if.then13, %land.lhs.true11, %if.end
  store i32 0, ptr %this, align 8
  ret void

terminate.lpad:                                   ; preds = %if.then13, %invoke.cont8, %delete.end7
  %8 = landingpad { ptr, i32 }
          catch ptr null
  %9 = extractvalue { ptr, i32 } %8, 0
  tail call void @__clang_call_terminate(ptr %9) #11
  unreachable
}